target datalayout = "e-m:e-p270:32:32-p271:32:32-p272:64:64-i64:64-i128:128-f80:128-n8:16:32:64-S128"
target triple = "x86_64-pc-linux-gnu"

%struct.expert_field = type { i32, i32 }
%struct.ieee802154_packet = type { i32, i32, i32, i32, i8, i8, i8, i8, i8, i8, i8, i8, i8, i8, i8, i8, i16, i16, i16, i64, i16, i64, i32, i32, i8, i32, i8, i64, %union.anon, i8, i8, ptr }
%union.anon = type { i64 }

@ei_ieee802154_missing_payload_ie = internal global %struct.expert_field zeroinitializer, align 4

; Function Attrs: null_pointer_is_valid sspstrong uwtable
define hidden i32 @ieee802154_dissect_payload_ies(ptr noundef %0, ptr noundef %1, ptr noundef %2, ptr noundef %3) #0 {
  %5 = alloca i32, align 4
  %6 = alloca ptr, align 8
  %7 = alloca ptr, align 8
  %8 = alloca ptr, align 8
  %9 = alloca ptr, align 8
  store ptr %0, ptr %6, align 8
  store ptr %1, ptr %7, align 8
  store ptr %2, ptr %8, align 8
  store ptr %3, ptr %9, align 8
  %10 = load ptr, ptr %9, align 8
  %11 = getelementptr inbounds nuw %struct.ieee802154_packet, ptr %10, i32 0, i32 13
  %12 = load i8, ptr %11, align 1, !range !6, !noundef !7
  %13 = trunc i8 %12 to i1
  br i1 %13, label %14, label %30

14:                                               ; preds = %4
  %15 = load ptr, ptr %6, align 8
  %16 = call i32 @tvb_reported_length(ptr noundef %15)
  %17 = icmp ugt i32 %16, 2
  br i1 %17, label %18, label %24

18:                                               ; preds = %14
  %19 = load ptr, ptr %6, align 8
  %20 = load ptr, ptr %7, align 8
  %21 = load ptr, ptr %8, align 8
  %22 = load ptr, ptr %9, align 8
  %23 = call i32 @dissect_ieee802154_payload_ie(ptr noundef %19, ptr noundef %20, ptr noundef %21, i32 noundef 0, ptr noundef %22)
  store i32 %23, ptr %5, align 4
  br label %31

24:                                               ; preds = %14
  %25 = load ptr, ptr %7, align 8
  %26 = load ptr, ptr %8, align 8
  %27 = call ptr @proto_tree_get_parent(ptr noundef %26)
  %28 = call ptr @expert_add_info(ptr noundef %25, ptr noundef %27, ptr noundef @ei_ieee802154_missing_payload_ie)
  br label %29

29:                                               ; preds = %24
  br label %30

30:                                               ; preds = %29, %4
  store i32 0, ptr %5, align 4
  br label %31

31:                                               ; preds = %30, %18
  %32 = load i32, ptr %5, align 4
  ret i32 %32
}