; Function Attrs: null_pointer_is_valid sspstrong uwtable
define hidden i32 @ieee802154_dissect_payload_ies(ptr noundef %0, ptr noundef %1, ptr noundef %2, ptr noundef %3) local_unnamed_addr #0 {
  %5 = getelementptr inbounds nuw i8, ptr %3, i64 25
  %6 = load i8, ptr %5, align 1, !range !6, !noundef !7
  %7 = trunc nuw i8 %6 to i1
  br i1 %7, label %8, label %16

8:                                                ; preds = %4
  %9 = tail call i32 @tvb_reported_length(ptr noundef %0)
  %10 = icmp ugt i32 %9, 2
  br i1 %10, label %11, label %13

11:                                               ; preds = %8
  %12 = tail call fastcc i32 @dissect_ieee802154_payload_ie(ptr noundef %0, ptr noundef %1, ptr noundef %2, ptr noundef %3)
  br label %16

13:                                               ; preds = %8
  %14 = tail call ptr @proto_tree_get_parent(ptr noundef %2)
  %15 = tail call ptr @expert_add_info(ptr noundef %1, ptr noundef %14, ptr noundef nonnull @ei_ieee802154_missing_payload_ie)
  br label %16

16:                                               ; preds = %4, %13, %11
  %.0 = phi i32 [ %12, %11 ], [ 0, %13 ], [ 0, %4 ]
  ret i32 %.0
}